ARM GAS  C:\Users\santa\AppData\Local\Temp\ccFmQtEc.s 			page 1


   1              		.syntax unified
   2              		.cpu cortex-m3
   3              		.fpu softvfp
   4              		.eabi_attribute 20, 1
   5              		.eabi_attribute 21, 1
   6              		.eabi_attribute 23, 3
   7              		.eabi_attribute 24, 1
   8              		.eabi_attribute 25, 1
   9              		.eabi_attribute 26, 1
  10              		.eabi_attribute 30, 1
  11              		.eabi_attribute 34, 1
  12              		.eabi_attribute 18, 4
  13              		.thumb
  14              		.syntax unified
  15              		.file	"Keypad_1_Keypad1.c"
  16              		.text
  17              	.Ltext0:
  18              		.cfi_sections	.debug_frame
  19              		.section	.text.Keypad_1_GetCol,"ax",%progbits
  20              		.align	2
  21              		.global	Keypad_1_GetCol
  22              		.thumb
  23              		.thumb_func
  24              		.type	Keypad_1_GetCol, %function
  25              	Keypad_1_GetCol:
  26              	.LFB63:
  27              		.file 1 "Generated_Source\\PSoC5\\Keypad_1_Keypad1.c"
   1:Generated_Source\PSoC5/Keypad_1_Keypad1.c **** /* ========================================
   2:Generated_Source\PSoC5/Keypad_1_Keypad1.c ****  *
   3:Generated_Source\PSoC5/Keypad_1_Keypad1.c ****  * Copyright YOUR COMPANY, THE YEAR
   4:Generated_Source\PSoC5/Keypad_1_Keypad1.c ****  * All Rights Reserved
   5:Generated_Source\PSoC5/Keypad_1_Keypad1.c ****  * UNPUBLISHED, LICENSED SOFTWARE.
   6:Generated_Source\PSoC5/Keypad_1_Keypad1.c ****  *
   7:Generated_Source\PSoC5/Keypad_1_Keypad1.c ****  * CONFIDENTIAL AND PROPRIETARY INFORMATION
   8:Generated_Source\PSoC5/Keypad_1_Keypad1.c ****  * WHICH IS THE PROPERTY OF your company.
   9:Generated_Source\PSoC5/Keypad_1_Keypad1.c ****  *
  10:Generated_Source\PSoC5/Keypad_1_Keypad1.c ****  * ========================================
  11:Generated_Source\PSoC5/Keypad_1_Keypad1.c **** */
  12:Generated_Source\PSoC5/Keypad_1_Keypad1.c **** #include "cyfitter.h"
  13:Generated_Source\PSoC5/Keypad_1_Keypad1.c **** #include <device.h>
  14:Generated_Source\PSoC5/Keypad_1_Keypad1.c **** 
  15:Generated_Source\PSoC5/Keypad_1_Keypad1.c **** uint8 Keypad_1_GetCol(void)
  16:Generated_Source\PSoC5/Keypad_1_Keypad1.c **** {
  28              		.loc 1 16 0
  29              		.cfi_startproc
  30              		@ args = 0, pretend = 0, frame = 0
  31              		@ frame_needed = 0, uses_anonymous_args = 0
  32 0000 10B5     		push	{r4, lr}
  33              		.cfi_def_cfa_offset 8
  34              		.cfi_offset 4, -8
  35              		.cfi_offset 14, -4
  36              	.L2:
  17:Generated_Source\PSoC5/Keypad_1_Keypad1.c **** 	uint8 Col;
  18:Generated_Source\PSoC5/Keypad_1_Keypad1.c **** 		
  19:Generated_Source\PSoC5/Keypad_1_Keypad1.c **** 	while(!(Keypad_1_Status_Reg_Read() & 0x10));	//Wait for a valid press of button
  37              		.loc 1 19 0 discriminator 1
  38 0002 FFF7FEFF 		bl	Keypad_1_Status_Reg_Read
ARM GAS  C:\Users\santa\AppData\Local\Temp\ccFmQtEc.s 			page 2


  39              	.LVL0:
  40 0006 10F0100F 		tst	r0, #16
  41 000a FAD0     		beq	.L2
  20:Generated_Source\PSoC5/Keypad_1_Keypad1.c **** 	
  21:Generated_Source\PSoC5/Keypad_1_Keypad1.c **** 	if(Keypad_1_Status_Reg_Read() & 0x10)			//Check for a valid press of button
  42              		.loc 1 21 0
  43 000c FFF7FEFF 		bl	Keypad_1_Status_Reg_Read
  44              	.LVL1:
  45 0010 10F0100F 		tst	r0, #16
  46 0014 02D0     		beq	.L3
  22:Generated_Source\PSoC5/Keypad_1_Keypad1.c **** 	{
  23:Generated_Source\PSoC5/Keypad_1_Keypad1.c **** 		Col = Keypad_1_Status_Reg_Read();
  47              		.loc 1 23 0
  48 0016 FFF7FEFF 		bl	Keypad_1_Status_Reg_Read
  49              	.LVL2:
  50 001a 0446     		mov	r4, r0
  51              	.LVL3:
  52              	.L3:
  24:Generated_Source\PSoC5/Keypad_1_Keypad1.c **** 	}
  25:Generated_Source\PSoC5/Keypad_1_Keypad1.c **** 	
  26:Generated_Source\PSoC5/Keypad_1_Keypad1.c **** 	Col = (Col & 0x03);										//Extract correct Column
  27:Generated_Source\PSoC5/Keypad_1_Keypad1.c **** 	
  28:Generated_Source\PSoC5/Keypad_1_Keypad1.c **** 	return (Col);
  29:Generated_Source\PSoC5/Keypad_1_Keypad1.c **** }
  53              		.loc 1 29 0
  54 001c 04F00300 		and	r0, r4, #3
  55 0020 10BD     		pop	{r4, pc}
  56              		.cfi_endproc
  57              	.LFE63:
  58              		.size	Keypad_1_GetCol, .-Keypad_1_GetCol
  59 0022 00BF     		.section	.text.Keypad_1_GetRow,"ax",%progbits
  60              		.align	2
  61              		.global	Keypad_1_GetRow
  62              		.thumb
  63              		.thumb_func
  64              		.type	Keypad_1_GetRow, %function
  65              	Keypad_1_GetRow:
  66              	.LFB64:
  30:Generated_Source\PSoC5/Keypad_1_Keypad1.c **** 
  31:Generated_Source\PSoC5/Keypad_1_Keypad1.c **** uint8 Keypad_1_GetRow(void)
  32:Generated_Source\PSoC5/Keypad_1_Keypad1.c **** {
  67              		.loc 1 32 0
  68              		.cfi_startproc
  69              		@ args = 0, pretend = 0, frame = 0
  70              		@ frame_needed = 0, uses_anonymous_args = 0
  71 0000 10B5     		push	{r4, lr}
  72              		.cfi_def_cfa_offset 8
  73              		.cfi_offset 4, -8
  74              		.cfi_offset 14, -4
  75              	.L6:
  33:Generated_Source\PSoC5/Keypad_1_Keypad1.c **** 	uint8 Row;
  34:Generated_Source\PSoC5/Keypad_1_Keypad1.c **** 	
  35:Generated_Source\PSoC5/Keypad_1_Keypad1.c **** 	while(!(Keypad_1_Status_Reg_Read() & 0x10));	//Wait for a valid press of button
  76              		.loc 1 35 0 discriminator 1
  77 0002 FFF7FEFF 		bl	Keypad_1_Status_Reg_Read
  78              	.LVL4:
  79 0006 10F0100F 		tst	r0, #16
ARM GAS  C:\Users\santa\AppData\Local\Temp\ccFmQtEc.s 			page 3


  80 000a FAD0     		beq	.L6
  36:Generated_Source\PSoC5/Keypad_1_Keypad1.c **** 	
  37:Generated_Source\PSoC5/Keypad_1_Keypad1.c **** 	if(Keypad_1_Status_Reg_Read() & 0x10)			//Check for a valid press of button
  81              		.loc 1 37 0
  82 000c FFF7FEFF 		bl	Keypad_1_Status_Reg_Read
  83              	.LVL5:
  84 0010 10F0100F 		tst	r0, #16
  85 0014 02D0     		beq	.L7
  38:Generated_Source\PSoC5/Keypad_1_Keypad1.c **** 	{
  39:Generated_Source\PSoC5/Keypad_1_Keypad1.c **** 		Row = Keypad_1_Status_Reg_Read();
  86              		.loc 1 39 0
  87 0016 FFF7FEFF 		bl	Keypad_1_Status_Reg_Read
  88              	.LVL6:
  89 001a 0446     		mov	r4, r0
  90              	.LVL7:
  91              	.L7:
  40:Generated_Source\PSoC5/Keypad_1_Keypad1.c **** 	}
  41:Generated_Source\PSoC5/Keypad_1_Keypad1.c **** 		
  42:Generated_Source\PSoC5/Keypad_1_Keypad1.c **** 	Row = (Row & 0x0C) >> 2;								//Extract correct Row
  43:Generated_Source\PSoC5/Keypad_1_Keypad1.c **** 	
  44:Generated_Source\PSoC5/Keypad_1_Keypad1.c **** 	return Row;
  45:Generated_Source\PSoC5/Keypad_1_Keypad1.c **** }
  92              		.loc 1 45 0
  93 001c C4F38100 		ubfx	r0, r4, #2, #2
  94 0020 10BD     		pop	{r4, pc}
  95              		.cfi_endproc
  96              	.LFE64:
  97              		.size	Keypad_1_GetRow, .-Keypad_1_GetRow
  98 0022 00BF     		.section	.text.Keypad_1_GetButton,"ax",%progbits
  99              		.align	2
 100              		.global	Keypad_1_GetButton
 101              		.thumb
 102              		.thumb_func
 103              		.type	Keypad_1_GetButton, %function
 104              	Keypad_1_GetButton:
 105              	.LFB65:
  46:Generated_Source\PSoC5/Keypad_1_Keypad1.c **** 
  47:Generated_Source\PSoC5/Keypad_1_Keypad1.c **** uint8 Keypad_1_GetButton(void)
  48:Generated_Source\PSoC5/Keypad_1_Keypad1.c **** {
 106              		.loc 1 48 0
 107              		.cfi_startproc
 108              		@ args = 0, pretend = 0, frame = 0
 109              		@ frame_needed = 0, uses_anonymous_args = 0
 110 0000 10B5     		push	{r4, lr}
 111              		.cfi_def_cfa_offset 8
 112              		.cfi_offset 4, -8
 113              		.cfi_offset 14, -4
  49:Generated_Source\PSoC5/Keypad_1_Keypad1.c **** 	char8 Button;
  50:Generated_Source\PSoC5/Keypad_1_Keypad1.c **** 	
  51:Generated_Source\PSoC5/Keypad_1_Keypad1.c **** 	uint8 x,y;
  52:Generated_Source\PSoC5/Keypad_1_Keypad1.c **** 	
  53:Generated_Source\PSoC5/Keypad_1_Keypad1.c **** 	x = Keypad_1_GetCol();
 114              		.loc 1 53 0
 115 0002 FFF7FEFF 		bl	Keypad_1_GetCol
 116              	.LVL8:
 117 0006 0446     		mov	r4, r0
 118              	.LVL9:
ARM GAS  C:\Users\santa\AppData\Local\Temp\ccFmQtEc.s 			page 4


  54:Generated_Source\PSoC5/Keypad_1_Keypad1.c **** 	
  55:Generated_Source\PSoC5/Keypad_1_Keypad1.c **** 	y = Keypad_1_GetRow();
 119              		.loc 1 55 0
 120 0008 FFF7FEFF 		bl	Keypad_1_GetRow
 121              	.LVL10:
  56:Generated_Source\PSoC5/Keypad_1_Keypad1.c **** 
  57:Generated_Source\PSoC5/Keypad_1_Keypad1.c **** 	Button=Keypad_1_Key[y][x];										//Assign correct Character
 122              		.loc 1 57 0
 123 000c 054B     		ldr	r3, .L12
 124 000e 03EB8000 		add	r0, r3, r0, lsl #2
 125              	.LVL11:
 126 0012 045D     		ldrb	r4, [r0, r4]	@ zero_extendqisi2
 127              	.LVL12:
 128              	.L10:
  58:Generated_Source\PSoC5/Keypad_1_Keypad1.c **** 	
  59:Generated_Source\PSoC5/Keypad_1_Keypad1.c **** 	while(!(Keypad_1_Status_Reg_Read() & 0x10));	//Wait for a valid press of button
 129              		.loc 1 59 0 discriminator 1
 130 0014 FFF7FEFF 		bl	Keypad_1_Status_Reg_Read
 131              	.LVL13:
 132 0018 10F0100F 		tst	r0, #16
 133 001c FAD0     		beq	.L10
  60:Generated_Source\PSoC5/Keypad_1_Keypad1.c **** 	
  61:Generated_Source\PSoC5/Keypad_1_Keypad1.c **** 	return Button;
  62:Generated_Source\PSoC5/Keypad_1_Keypad1.c **** }
 134              		.loc 1 62 0
 135 001e 2046     		mov	r0, r4
 136 0020 10BD     		pop	{r4, pc}
 137              	.LVL14:
 138              	.L13:
 139 0022 00BF     		.align	2
 140              	.L12:
 141 0024 00000000 		.word	Keypad_1_Key
 142              		.cfi_endproc
 143              	.LFE65:
 144              		.size	Keypad_1_GetButton, .-Keypad_1_GetButton
 145              		.comm	Keypad_1_Key,16,4
 146              		.text
 147              	.Letext0:
 148              		.file 2 "c:\\program files (x86)\\cypress\\psoc creator\\4.2\\psoc creator\\import\\gnu\\arm\\5.4.
 149              		.file 3 "c:\\program files (x86)\\cypress\\psoc creator\\4.2\\psoc creator\\import\\gnu\\arm\\5.4.
 150              		.file 4 "Generated_Source\\PSoC5/cytypes.h"
 151              		.file 5 "Generated_Source\\PSoC5/Keypad_1_Keypad1.h"
 152              		.file 6 "Generated_Source\\PSoC5/core_cm3.h"
 153              		.file 7 "Generated_Source\\PSoC5/Keypad_1_Status_Reg.h"