ARM GAS  C:\Users\santa\AppData\Local\Temp\cc91iiC0.s 			page 1


   1              		.syntax unified
   2              		.cpu cortex-m3
   3              		.fpu softvfp
   4              		.eabi_attribute 20, 1
   5              		.eabi_attribute 21, 1
   6              		.eabi_attribute 23, 3
   7              		.eabi_attribute 24, 1
   8              		.eabi_attribute 25, 1
   9              		.eabi_attribute 26, 1
  10              		.eabi_attribute 30, 1
  11              		.eabi_attribute 34, 1
  12              		.eabi_attribute 18, 4
  13              		.thumb
  14              		.syntax unified
  15              		.file	"main.c"
  16              		.text
  17              	.Ltext0:
  18              		.cfi_sections	.debug_frame
  19              		.global	__aeabi_f2uiz
  20              		.section	.text.Timer,"ax",%progbits
  21              		.align	2
  22              		.global	Timer
  23              		.thumb
  24              		.thumb_func
  25              		.type	Timer, %function
  26              	Timer:
  27              	.LFB64:
  28              		.file 1 "main.c"
   1:main.c        **** /* ========================================
   2:main.c        ****  *
   3:main.c        ****  * Copyright YOUR COMPANY, THE YEAR
   4:main.c        ****  * All Rights Reserved
   5:main.c        ****  * UNPUBLISHED, LICENSED SOFTWARE.
   6:main.c        ****  *
   7:main.c        ****  * CONFIDENTIAL AND PROPRIETARY INFORMATION
   8:main.c        ****  * WHICH IS THE PROPERTY OF your company.
   9:main.c        ****  *
  10:main.c        ****  * ========================================
  11:main.c        **** */
  12:main.c        **** #include "project.h"
  13:main.c        **** #include "stdlib.h"
  14:main.c        **** #include "stdio.h"
  15:main.c        **** volatile int flag=0;
  16:main.c        **** int flag_cont,flag_stop,flag_reset=0;
  17:main.c        **** volatile uint8 index_vis=0;
  18:main.c        **** volatile uint32 datos=0;
  19:main.c        **** volatile float temperatura;
  20:main.c        **** uint8 count_t=0;
  21:main.c        **** char valor[4];
  22:main.c        **** int x,y=0;
  23:main.c        **** //#include "device.h"
  24:main.c        **** void Visualizacion(float32 dato);
  25:main.c        **** char8 Keypad_1_Key[4][4] = {
  26:main.c        **** 					{'1','2','3','A'},		//Row 0
  27:main.c        **** 					
  28:main.c        **** 					{'4','5','6','B'},		//Row 1
  29:main.c        **** 										
ARM GAS  C:\Users\santa\AppData\Local\Temp\cc91iiC0.s 			page 2


  30:main.c        **** 					{'7','8','9','C'},		//Row 2
  31:main.c        **** 					
  32:main.c        **** 					{'*','0','#','D'}		//Row 3
  33:main.c        **** 				  };
  34:main.c        **** 
  35:main.c        **** CY_ISR(Timer){
  29              		.loc 1 35 0
  30              		.cfi_startproc
  31              		@ args = 0, pretend = 0, frame = 0
  32              		@ frame_needed = 0, uses_anonymous_args = 0
  33 0000 10B5     		push	{r4, lr}
  34              		.cfi_def_cfa_offset 8
  35              		.cfi_offset 4, -8
  36              		.cfi_offset 14, -4
  36:main.c        ****   pin_Write(1);
  37              		.loc 1 36 0
  38 0002 0120     		movs	r0, #1
  39 0004 FFF7FEFF 		bl	pin_Write
  40              	.LVL0:
  37:main.c        ****   if(count_t<60){
  41              		.loc 1 37 0
  42 0008 0C4B     		ldr	r3, .L5
  43 000a 1B78     		ldrb	r3, [r3]	@ zero_extendqisi2
  44 000c 3B2B     		cmp	r3, #59
  45 000e 0DD8     		bhi	.L2
  38:main.c        ****      count_t++;  
  46              		.loc 1 38 0
  47 0010 0133     		adds	r3, r3, #1
  48 0012 DBB2     		uxtb	r3, r3
  49 0014 094A     		ldr	r2, .L5
  50 0016 1370     		strb	r3, [r2]
  39:main.c        ****      EEPROM_WriteByte(temperatura,count_t);
  51              		.loc 1 39 0
  52 0018 094A     		ldr	r2, .L5+4
  53 001a 1068     		ldr	r0, [r2]	@ float
  54 001c 9CB2     		uxth	r4, r3
  55 001e FFF7FEFF 		bl	__aeabi_f2uiz
  56              	.LVL1:
  57 0022 2146     		mov	r1, r4
  58 0024 C0B2     		uxtb	r0, r0
  59 0026 FFF7FEFF 		bl	EEPROM_WriteByte
  60              	.LVL2:
  61 002a 10BD     		pop	{r4, pc}
  62              	.L2:
  40:main.c        ****   }else{
  41:main.c        ****      flag_stop=1;
  63              		.loc 1 41 0
  64 002c 0122     		movs	r2, #1
  65 002e 054B     		ldr	r3, .L5+8
  66 0030 1A60     		str	r2, [r3]
  42:main.c        ****      count_t=0;
  67              		.loc 1 42 0
  68 0032 0022     		movs	r2, #0
  69 0034 014B     		ldr	r3, .L5
  70 0036 1A70     		strb	r2, [r3]
  71 0038 10BD     		pop	{r4, pc}
  72              	.L6:
ARM GAS  C:\Users\santa\AppData\Local\Temp\cc91iiC0.s 			page 3


  73 003a 00BF     		.align	2
  74              	.L5:
  75 003c 00000000 		.word	.LANCHOR0
  76 0040 00000000 		.word	temperatura
  77 0044 00000000 		.word	flag_stop
  78              		.cfi_endproc
  79              	.LFE64:
  80              		.size	Timer, .-Timer
  81              		.section	.text.press_ISR,"ax",%progbits
  82              		.align	2
  83              		.global	press_ISR
  84              		.thumb
  85              		.thumb_func
  86              		.type	press_ISR, %function
  87              	press_ISR:
  88              	.LFB65:
  43:main.c        **** 
  44:main.c        ****  }
  45:main.c        **** 
  46:main.c        **** }
  47:main.c        **** 
  48:main.c        **** CY_ISR(press_ISR){
  89              		.loc 1 48 0
  90              		.cfi_startproc
  91              		@ args = 0, pretend = 0, frame = 0
  92              		@ frame_needed = 0, uses_anonymous_args = 0
  93 0000 10B5     		push	{r4, lr}
  94              		.cfi_def_cfa_offset 8
  95              		.cfi_offset 4, -8
  96              		.cfi_offset 14, -4
  49:main.c        ****     char t=Keypad_1_GetButton();
  97              		.loc 1 49 0
  98 0002 FFF7FEFF 		bl	Keypad_1_GetButton
  99              	.LVL3:
 100 0006 0446     		mov	r4, r0
 101              	.LVL4:
  50:main.c        ****     CyDelay(200);    
 102              		.loc 1 50 0
 103 0008 C820     		movs	r0, #200
 104 000a FFF7FEFF 		bl	CyDelay
 105              	.LVL5:
  51:main.c        **** switch(t){
 106              		.loc 1 51 0
 107 000e A4F13100 		sub	r0, r4, #49
 108 0012 1128     		cmp	r0, #17
 109 0014 31D8     		bhi	.L8
 110 0016 DFE800F0 		tbb	[pc, r0]
 111              	.L10:
 112 001a 13       		.byte	(.L9-.L10)/2
 113 001b 22       		.byte	(.L11-.L10)/2
 114 001c 30       		.byte	(.L8-.L10)/2
 115 001d 30       		.byte	(.L8-.L10)/2
 116 001e 30       		.byte	(.L8-.L10)/2
 117 001f 30       		.byte	(.L8-.L10)/2
 118 0020 30       		.byte	(.L8-.L10)/2
 119 0021 30       		.byte	(.L8-.L10)/2
 120 0022 30       		.byte	(.L8-.L10)/2
ARM GAS  C:\Users\santa\AppData\Local\Temp\cc91iiC0.s 			page 4


 121 0023 30       		.byte	(.L8-.L10)/2
 122 0024 30       		.byte	(.L8-.L10)/2
 123 0025 30       		.byte	(.L8-.L10)/2
 124 0026 30       		.byte	(.L8-.L10)/2
 125 0027 30       		.byte	(.L8-.L10)/2
 126 0028 30       		.byte	(.L8-.L10)/2
 127 0029 30       		.byte	(.L8-.L10)/2
 128 002a 09       		.byte	(.L12-.L10)/2
 129 002b 0D       		.byte	(.L13-.L10)/2
 130              		.p2align 1
 131              	.L12:
  52:main.c        ****     case 'A'://inicio de captura
  53:main.c        ****         flag=1;
 132              		.loc 1 53 0
 133 002c 0122     		movs	r2, #1
 134 002e 144B     		ldr	r3, .L17
 135 0030 5A60     		str	r2, [r3, #4]
  54:main.c        ****     break;
 136              		.loc 1 54 0
 137 0032 22E0     		b	.L8
 138              	.L13:
  55:main.c        ****     case 'B'://reset
  56:main.c        ****         flag_reset=1;
 139              		.loc 1 56 0
 140 0034 124B     		ldr	r3, .L17
 141 0036 0122     		movs	r2, #1
 142 0038 9A60     		str	r2, [r3, #8]
  57:main.c        ****         flag=0;        
 143              		.loc 1 57 0
 144 003a 0022     		movs	r2, #0
 145 003c 5A60     		str	r2, [r3, #4]
  58:main.c        ****     break;
 146              		.loc 1 58 0
 147 003e 1CE0     		b	.L8
 148              	.L9:
  59:main.c        ****     case 'C':
  60:main.c        ****     
  61:main.c        ****     break;
  62:main.c        ****     case 'D':
  63:main.c        ****     
  64:main.c        ****     break;
  65:main.c        ****     case '1':
  66:main.c        ****         if (index_vis<=10){//10 por que la visualizacion son 6 datos(por fila de eeprom)
 149              		.loc 1 66 0
 150 0040 0F4B     		ldr	r3, .L17
 151 0042 1B7B     		ldrb	r3, [r3, #12]	@ zero_extendqisi2
 152 0044 DBB2     		uxtb	r3, r3
 153 0046 0A2B     		cmp	r3, #10
 154 0048 05D8     		bhi	.L14
  67:main.c        ****             index_vis++;        
 155              		.loc 1 67 0
 156 004a 0D4A     		ldr	r2, .L17
 157 004c 137B     		ldrb	r3, [r2, #12]	@ zero_extendqisi2
 158 004e 0133     		adds	r3, r3, #1
 159 0050 DBB2     		uxtb	r3, r3
 160 0052 1373     		strb	r3, [r2, #12]
 161 0054 11E0     		b	.L8
ARM GAS  C:\Users\santa\AppData\Local\Temp\cc91iiC0.s 			page 5


 162              	.L14:
  68:main.c        ****         }else{
  69:main.c        ****             index_vis=1;
 163              		.loc 1 69 0
 164 0056 0122     		movs	r2, #1
 165 0058 094B     		ldr	r3, .L17
 166 005a 1A73     		strb	r2, [r3, #12]
 167 005c 0DE0     		b	.L8
 168              	.L11:
  70:main.c        ****         }        
  71:main.c        ****     break;
  72:main.c        ****     case '2':
  73:main.c        ****         if (index_vis<=1){//10 por que la visualizacion son 6 datos(por fila de eeprom)
 169              		.loc 1 73 0
 170 005e 084B     		ldr	r3, .L17
 171 0060 1B7B     		ldrb	r3, [r3, #12]	@ zero_extendqisi2
 172 0062 DBB2     		uxtb	r3, r3
 173 0064 012B     		cmp	r3, #1
 174 0066 03D8     		bhi	.L15
  74:main.c        ****             
  75:main.c        ****             index_vis=10;
 175              		.loc 1 75 0
 176 0068 0A22     		movs	r2, #10
 177 006a 054B     		ldr	r3, .L17
 178 006c 1A73     		strb	r2, [r3, #12]
 179 006e 04E0     		b	.L8
 180              	.L15:
  76:main.c        ****         }else{
  77:main.c        ****             index_vis--;
 181              		.loc 1 77 0
 182 0070 034A     		ldr	r2, .L17
 183 0072 137B     		ldrb	r3, [r2, #12]	@ zero_extendqisi2
 184 0074 013B     		subs	r3, r3, #1
 185 0076 DBB2     		uxtb	r3, r3
 186 0078 1373     		strb	r3, [r2, #12]
 187              	.L8:
  78:main.c        ****         }    
  79:main.c        ****     break;
  80:main.c        ****     case '3':
  81:main.c        ****     
  82:main.c        ****     break;
  83:main.c        ****     case '4':
  84:main.c        ****     
  85:main.c        ****     break;
  86:main.c        ****     case '5':
  87:main.c        ****     
  88:main.c        ****     break;
  89:main.c        ****     case '6':
  90:main.c        ****     
  91:main.c        ****     break;
  92:main.c        ****     case '7':
  93:main.c        ****     
  94:main.c        ****     break;
  95:main.c        ****     case '8':
  96:main.c        ****     
  97:main.c        ****     break;
  98:main.c        ****     case '9':
ARM GAS  C:\Users\santa\AppData\Local\Temp\cc91iiC0.s 			page 6


  99:main.c        ****     
 100:main.c        ****     break;
 101:main.c        ****     case '0':
 102:main.c        ****     
 103:main.c        ****     break;
 104:main.c        ****     case '*':
 105:main.c        ****     
 106:main.c        ****     break;
 107:main.c        ****     case '#':
 108:main.c        ****     
 109:main.c        ****     break;
 110:main.c        **** }    
 111:main.c        ****  //    LCD_Position(1,5);
 112:main.c        ****  //    LCD_PutChar(Keypad_1_GetButton());
 113:main.c        ****      isr_press_ClearPending();
 188              		.loc 1 113 0
 189 007a FFF7FEFF 		bl	isr_press_ClearPending
 190              	.LVL6:
 191 007e 10BD     		pop	{r4, pc}
 192              	.LVL7:
 193              	.L18:
 194              		.align	2
 195              	.L17:
 196 0080 00000000 		.word	.LANCHOR0
 197              		.cfi_endproc
 198              	.LFE65:
 199              		.size	press_ISR, .-press_ISR
 200              		.global	__aeabi_f2d
 201              		.section	.text.Visualizacion,"ax",%progbits
 202              		.align	2
 203              		.global	Visualizacion
 204              		.thumb
 205              		.thumb_func
 206              		.type	Visualizacion, %function
 207              	Visualizacion:
 208              	.LFB67:
 114:main.c        **** }
 115:main.c        **** ///////////////////////visualizar datos////////////
 116:main.c        **** void Read_Data(){
 117:main.c        ****  
 118:main.c        ****   for(int j=0; j<6;j++){
 119:main.c        ****     Visualizacion(EEPROM_ReadByte(6*(index_vis-1))+j);
 120:main.c        **** 
 121:main.c        ****   } 
 122:main.c        **** 
 123:main.c        **** }
 124:main.c        **** 
 125:main.c        **** //funcion de visualizacion
 126:main.c        **** void Visualizacion(float32 dato){
 209              		.loc 1 126 0
 210              		.cfi_startproc
 211              		@ args = 0, pretend = 0, frame = 0
 212              		@ frame_needed = 0, uses_anonymous_args = 0
 213              	.LVL8:
 214 0000 38B5     		push	{r3, r4, r5, lr}
 215              		.cfi_def_cfa_offset 16
 216              		.cfi_offset 3, -16
ARM GAS  C:\Users\santa\AppData\Local\Temp\cc91iiC0.s 			page 7


 217              		.cfi_offset 4, -12
 218              		.cfi_offset 5, -8
 219              		.cfi_offset 14, -4
 220 0002 0546     		mov	r5, r0
 221              	.LVL9:
 127:main.c        ****     char *data_out="";
 128:main.c        ****     LCD_Position(x,y);
 222              		.loc 1 128 0
 223 0004 124C     		ldr	r4, .L23
 224 0006 217C     		ldrb	r1, [r4, #16]	@ zero_extendqisi2
 225 0008 124B     		ldr	r3, .L23+4
 226 000a 1878     		ldrb	r0, [r3]	@ zero_extendqisi2
 227              	.LVL10:
 228 000c FFF7FEFF 		bl	LCD_Position
 229              	.LVL11:
 129:main.c        ****     sprintf(data_out,"%f.2",dato);
 230              		.loc 1 129 0
 231 0010 2846     		mov	r0, r5
 232 0012 FFF7FEFF 		bl	__aeabi_f2d
 233              	.LVL12:
 234 0016 104D     		ldr	r5, .L23+8
 235              	.LVL13:
 236 0018 0246     		mov	r2, r0
 237 001a 0B46     		mov	r3, r1
 238 001c 0F49     		ldr	r1, .L23+12
 239 001e 2846     		mov	r0, r5
 240 0020 FFF7FEFF 		bl	sprintf
 241              	.LVL14:
 130:main.c        ****     LCD_PrintString(data_out);
 242              		.loc 1 130 0
 243 0024 2846     		mov	r0, r5
 244 0026 FFF7FEFF 		bl	LCD_PrintString
 245              	.LVL15:
 131:main.c        ****     y++;
 246              		.loc 1 131 0
 247 002a 2369     		ldr	r3, [r4, #16]
 248 002c 0133     		adds	r3, r3, #1
 249 002e 2361     		str	r3, [r4, #16]
 132:main.c        ****     if(y>12){
 250              		.loc 1 132 0
 251 0030 0C2B     		cmp	r3, #12
 252 0032 05DD     		ble	.L20
 133:main.c        ****       y=0;
 253              		.loc 1 133 0
 254 0034 0022     		movs	r2, #0
 255 0036 2261     		str	r2, [r4, #16]
 134:main.c        ****       x++;  
 256              		.loc 1 134 0
 257 0038 064A     		ldr	r2, .L23+4
 258 003a 1368     		ldr	r3, [r2]
 259 003c 0133     		adds	r3, r3, #1
 260 003e 1360     		str	r3, [r2]
 261              	.L20:
 135:main.c        ****     }
 136:main.c        ****     if(x>1){
 262              		.loc 1 136 0
 263 0040 044B     		ldr	r3, .L23+4
ARM GAS  C:\Users\santa\AppData\Local\Temp\cc91iiC0.s 			page 8


 264 0042 1B68     		ldr	r3, [r3]
 265 0044 012B     		cmp	r3, #1
 266 0046 02DD     		ble	.L19
 137:main.c        ****       x=0;
 267              		.loc 1 137 0
 268 0048 0022     		movs	r2, #0
 269 004a 024B     		ldr	r3, .L23+4
 270 004c 1A60     		str	r2, [r3]
 271              	.L19:
 272 004e 38BD     		pop	{r3, r4, r5, pc}
 273              	.L24:
 274              		.align	2
 275              	.L23:
 276 0050 00000000 		.word	.LANCHOR0
 277 0054 00000000 		.word	x
 278 0058 08000000 		.word	.LC1
 279 005c 00000000 		.word	.LC0
 280              		.cfi_endproc
 281              	.LFE67:
 282              		.size	Visualizacion, .-Visualizacion
 283              		.global	__aeabi_i2f
 284              		.section	.text.Read_Data,"ax",%progbits
 285              		.align	2
 286              		.global	Read_Data
 287              		.thumb
 288              		.thumb_func
 289              		.type	Read_Data, %function
 290              	Read_Data:
 291              	.LFB66:
 116:main.c        ****  
 292              		.loc 1 116 0
 293              		.cfi_startproc
 294              		@ args = 0, pretend = 0, frame = 0
 295              		@ frame_needed = 0, uses_anonymous_args = 0
 296 0000 10B5     		push	{r4, lr}
 297              		.cfi_def_cfa_offset 8
 298              		.cfi_offset 4, -8
 299              		.cfi_offset 14, -4
 300              	.LVL16:
 301              	.LBB2:
 118:main.c        ****     Visualizacion(EEPROM_ReadByte(6*(index_vis-1))+j);
 302              		.loc 1 118 0
 303 0002 0024     		movs	r4, #0
 304 0004 0EE0     		b	.L26
 305              	.LVL17:
 306              	.L27:
 119:main.c        **** 
 307              		.loc 1 119 0 discriminator 3
 308 0006 094B     		ldr	r3, .L29
 309 0008 1B7B     		ldrb	r3, [r3, #12]	@ zero_extendqisi2
 310 000a 013B     		subs	r3, r3, #1
 311 000c 03EB4303 		add	r3, r3, r3, lsl #1
 312 0010 5800     		lsls	r0, r3, #1
 313 0012 80B2     		uxth	r0, r0
 314 0014 FFF7FEFF 		bl	EEPROM_ReadByte
 315              	.LVL18:
 316 0018 2044     		add	r0, r0, r4
ARM GAS  C:\Users\santa\AppData\Local\Temp\cc91iiC0.s 			page 9


 317 001a FFF7FEFF 		bl	__aeabi_i2f
 318              	.LVL19:
 319 001e FFF7FEFF 		bl	Visualizacion
 320              	.LVL20:
 118:main.c        ****     Visualizacion(EEPROM_ReadByte(6*(index_vis-1))+j);
 321              		.loc 1 118 0 discriminator 3
 322 0022 0134     		adds	r4, r4, #1
 323              	.LVL21:
 324              	.L26:
 118:main.c        ****     Visualizacion(EEPROM_ReadByte(6*(index_vis-1))+j);
 325              		.loc 1 118 0 is_stmt 0 discriminator 1
 326 0024 052C     		cmp	r4, #5
 327 0026 EEDD     		ble	.L27
 328              	.LBE2:
 123:main.c        **** 
 329              		.loc 1 123 0 is_stmt 1
 330 0028 10BD     		pop	{r4, pc}
 331              	.LVL22:
 332              	.L30:
 333 002a 00BF     		.align	2
 334              	.L29:
 335 002c 00000000 		.word	.LANCHOR0
 336              		.cfi_endproc
 337              	.LFE66:
 338              		.size	Read_Data, .-Read_Data
 339              		.global	__aeabi_fdiv
 340              		.section	.text.conversion_temp,"ax",%progbits
 341              		.align	2
 342              		.global	conversion_temp
 343              		.thumb
 344              		.thumb_func
 345              		.type	conversion_temp, %function
 346              	conversion_temp:
 347              	.LFB68:
 138:main.c        ****     }
 139:main.c        **** }
 140:main.c        **** ///void conversion////
 141:main.c        **** void conversion_temp(){
 348              		.loc 1 141 0
 349              		.cfi_startproc
 350              		@ args = 0, pretend = 0, frame = 0
 351              		@ frame_needed = 0, uses_anonymous_args = 0
 352 0000 10B5     		push	{r4, lr}
 353              		.cfi_def_cfa_offset 8
 354              		.cfi_offset 4, -8
 355              		.cfi_offset 14, -4
 142:main.c        ****     temperatura = ADC_CountsTo_mVolts(datos);
 356              		.loc 1 142 0
 357 0002 074B     		ldr	r3, .L33
 358 0004 5869     		ldr	r0, [r3, #20]
 359 0006 00B2     		sxth	r0, r0
 360 0008 FFF7FEFF 		bl	ADC_CountsTo_mVolts
 361              	.LVL23:
 362 000c FFF7FEFF 		bl	__aeabi_i2f
 363              	.LVL24:
 364 0010 044C     		ldr	r4, .L33+4
 365 0012 2060     		str	r0, [r4]	@ float
ARM GAS  C:\Users\santa\AppData\Local\Temp\cc91iiC0.s 			page 10


 143:main.c        ****     temperatura = temperatura/10;
 366              		.loc 1 143 0
 367 0014 2068     		ldr	r0, [r4]	@ float
 368 0016 0449     		ldr	r1, .L33+8
 369 0018 FFF7FEFF 		bl	__aeabi_fdiv
 370              	.LVL25:
 371 001c 2060     		str	r0, [r4]	@ float
 372 001e 10BD     		pop	{r4, pc}
 373              	.L34:
 374              		.align	2
 375              	.L33:
 376 0020 00000000 		.word	.LANCHOR0
 377 0024 00000000 		.word	temperatura
 378 0028 00002041 		.word	1092616192
 379              		.cfi_endproc
 380              	.LFE68:
 381              		.size	conversion_temp, .-conversion_temp
 382              		.section	.text.main,"ax",%progbits
 383              		.align	2
 384              		.global	main
 385              		.thumb
 386              		.thumb_func
 387              		.type	main, %function
 388              	main:
 389              	.LFB69:
 144:main.c        **** } 
 145:main.c        **** 
 146:main.c        **** 
 147:main.c        **** 
 148:main.c        **** ////
 149:main.c        **** int main(void)
 150:main.c        **** {
 390              		.loc 1 150 0
 391              		.cfi_startproc
 392              		@ args = 0, pretend = 0, frame = 8
 393              		@ frame_needed = 0, uses_anonymous_args = 0
 394 0000 30B5     		push	{r4, r5, lr}
 395              		.cfi_def_cfa_offset 12
 396              		.cfi_offset 4, -12
 397              		.cfi_offset 5, -8
 398              		.cfi_offset 14, -4
 399 0002 83B0     		sub	sp, sp, #12
 400              		.cfi_def_cfa_offset 24
 151:main.c        ****     CyGlobalIntEnable; /* Enable global interrupts. */
 401              		.loc 1 151 0
 402              		.syntax unified
 403              	@ 151 "main.c" 1
 404 0004 62B6     		CPSIE   i
 405              	@ 0 "" 2
 152:main.c        ****     isr_timer_StartEx(Timer);
 406              		.loc 1 152 0
 407              		.thumb
 408              		.syntax unified
 409 0006 4548     		ldr	r0, .L42
 410 0008 FFF7FEFF 		bl	isr_timer_StartEx
 411              	.LVL26:
 153:main.c        ****     isr_press_StartEx(press_ISR);
ARM GAS  C:\Users\santa\AppData\Local\Temp\cc91iiC0.s 			page 11


 412              		.loc 1 153 0
 413 000c 4448     		ldr	r0, .L42+4
 414 000e FFF7FEFF 		bl	isr_press_StartEx
 415              	.LVL27:
 154:main.c        ****     /* Place your initialization/startup code here (e.g. MyInst_Start()) */
 155:main.c        ****     ADC_Start();
 416              		.loc 1 155 0
 417 0012 FFF7FEFF 		bl	ADC_Start
 418              	.LVL28:
 156:main.c        ****     LCD_Start();
 419              		.loc 1 156 0
 420 0016 FFF7FEFF 		bl	LCD_Start
 421              	.LVL29:
 157:main.c        ****     LCD_ClearDisplay();
 422              		.loc 1 157 0
 423 001a 0120     		movs	r0, #1
 424 001c FFF7FEFF 		bl	LCD_WriteControl
 425              	.LVL30:
 426              	.L40:
 427              	.LBB3:
 158:main.c        ****       
 159:main.c        ****     //LCD_Position(0,0);
 160:main.c        ****     //LCD_PrintString("Iniciar");
 161:main.c        ****     for(;;)
 162:main.c        ****     {
 163:main.c        ****       
 164:main.c        ****         char dt[4]="";
 428              		.loc 1 164 0
 429 0020 0024     		movs	r4, #0
 430 0022 0194     		str	r4, [sp, #4]
 165:main.c        ****        CyDelay(20);
 431              		.loc 1 165 0
 432 0024 1420     		movs	r0, #20
 433 0026 FFF7FEFF 		bl	CyDelay
 434              	.LVL31:
 166:main.c        ****        pin_Write(0);
 435              		.loc 1 166 0
 436 002a 2046     		mov	r0, r4
 437 002c FFF7FEFF 		bl	pin_Write
 438              	.LVL32:
 167:main.c        ****        
 168:main.c        ****        if(flag==1 && flag_stop!=1){
 439              		.loc 1 168 0
 440 0030 3C4B     		ldr	r3, .L42+8
 441 0032 5B68     		ldr	r3, [r3, #4]
 442 0034 012B     		cmp	r3, #1
 443 0036 2ED1     		bne	.L36
 444              		.loc 1 168 0 is_stmt 0 discriminator 1
 445 0038 3B4B     		ldr	r3, .L42+12
 446 003a 1B68     		ldr	r3, [r3]
 447 003c 012B     		cmp	r3, #1
 448 003e 2AD0     		beq	.L36
 169:main.c        ****               EEPROM_Start();
 449              		.loc 1 169 0 is_stmt 1
 450 0040 FFF7FEFF 		bl	EEPROM_Start
 451              	.LVL33:
 170:main.c        ****               Timer_Start();
ARM GAS  C:\Users\santa\AppData\Local\Temp\cc91iiC0.s 			page 12


 452              		.loc 1 170 0
 453 0044 FFF7FEFF 		bl	Timer_Start
 454              	.LVL34:
 171:main.c        ****               ADC_StartConvert();
 455              		.loc 1 171 0
 456 0048 FFF7FEFF 		bl	ADC_StartConvert
 457              	.LVL35:
 172:main.c        ****               ADC_IsEndConversion(ADC_WAIT_FOR_RESULT);
 458              		.loc 1 172 0
 459 004c 2046     		mov	r0, r4
 460 004e FFF7FEFF 		bl	ADC_IsEndConversion
 461              	.LVL36:
 173:main.c        ****               datos=ADC_GetResult16();
 462              		.loc 1 173 0
 463 0052 FFF7FEFF 		bl	ADC_GetResult16
 464              	.LVL37:
 465 0056 334B     		ldr	r3, .L42+8
 466 0058 5861     		str	r0, [r3, #20]
 174:main.c        ****               conversion_temp();
 467              		.loc 1 174 0
 468 005a FFF7FEFF 		bl	conversion_temp
 469              	.LVL38:
 175:main.c        ****               LCD_Position(0,0);
 470              		.loc 1 175 0
 471 005e 2146     		mov	r1, r4
 472 0060 2046     		mov	r0, r4
 473 0062 FFF7FEFF 		bl	LCD_Position
 474              	.LVL39:
 176:main.c        ****               LCD_PrintString("Capturando...");
 475              		.loc 1 176 0
 476 0066 3148     		ldr	r0, .L42+16
 477 0068 FFF7FEFF 		bl	LCD_PrintString
 478              	.LVL40:
 177:main.c        ****               sprintf(dt,"%f", temperatura);
 479              		.loc 1 177 0
 480 006c 304B     		ldr	r3, .L42+20
 481 006e 1868     		ldr	r0, [r3]	@ float
 482 0070 FFF7FEFF 		bl	__aeabi_f2d
 483              	.LVL41:
 484 0074 0246     		mov	r2, r0
 485 0076 0B46     		mov	r3, r1
 486 0078 2E49     		ldr	r1, .L42+24
 487 007a 01A8     		add	r0, sp, #4
 488 007c FFF7FEFF 		bl	sprintf
 489              	.LVL42:
 178:main.c        ****               CyDelay(140);
 490              		.loc 1 178 0
 491 0080 8C20     		movs	r0, #140
 492 0082 FFF7FEFF 		bl	CyDelay
 493              	.LVL43:
 179:main.c        ****                LCD_Position(1,0);
 494              		.loc 1 179 0
 495 0086 2146     		mov	r1, r4
 496 0088 0120     		movs	r0, #1
 497 008a FFF7FEFF 		bl	LCD_Position
 498              	.LVL44:
 180:main.c        ****              
ARM GAS  C:\Users\santa\AppData\Local\Temp\cc91iiC0.s 			page 13


 181:main.c        ****             LCD_PrintString(dt); //se deja milivoltios para mayor rango
 499              		.loc 1 181 0
 500 008e 01A8     		add	r0, sp, #4
 501 0090 FFF7FEFF 		bl	LCD_PrintString
 502              	.LVL45:
 503 0094 2CE0     		b	.L37
 504              	.L36:
 182:main.c        ****        }else if(flag==1 & flag_stop==1){
 505              		.loc 1 182 0
 506 0096 234B     		ldr	r3, .L42+8
 507 0098 5B68     		ldr	r3, [r3, #4]
 508 009a 234A     		ldr	r2, .L42+12
 509 009c 1268     		ldr	r2, [r2]
 510 009e 012A     		cmp	r2, #1
 511 00a0 08BF     		it	eq
 512 00a2 012B     		cmpeq	r3, #1
 513 00a4 1DD1     		bne	.L38
 514              	.LBB4:
 183:main.c        ****                 Timer_Stop();
 515              		.loc 1 183 0
 516 00a6 FFF7FEFF 		bl	Timer_Stop
 517              	.LVL46:
 184:main.c        ****                 ADC_Stop();
 518              		.loc 1 184 0
 519 00aa FFF7FEFF 		bl	ADC_Stop
 520              	.LVL47:
 185:main.c        ****                 LCD_ClearDisplay();
 521              		.loc 1 185 0
 522 00ae 0120     		movs	r0, #1
 523 00b0 FFF7FEFF 		bl	LCD_WriteControl
 524              	.LVL48:
 186:main.c        ****                 int x=EEPROM_ReadByte(40);
 525              		.loc 1 186 0
 526 00b4 2820     		movs	r0, #40
 527 00b6 FFF7FEFF 		bl	EEPROM_ReadByte
 528              	.LVL49:
 187:main.c        ****                 char tx[3]="";
 529              		.loc 1 187 0
 530 00ba 1F4B     		ldr	r3, .L42+28
 531 00bc 1B78     		ldrb	r3, [r3]	@ zero_extendqisi2
 532 00be 8DF80030 		strb	r3, [sp]
 533 00c2 0023     		movs	r3, #0
 534 00c4 ADF80130 		strh	r3, [sp, #1]	@ unaligned
 188:main.c        ****                 sprintf(tx, "%d", x);
 535              		.loc 1 188 0
 536 00c8 0246     		mov	r2, r0
 537 00ca 1C49     		ldr	r1, .L42+32
 538 00cc 6846     		mov	r0, sp
 539              	.LVL50:
 540 00ce FFF7FEFF 		bl	sprintf
 541              	.LVL51:
 189:main.c        ****                 LCD_Position(1,8);
 542              		.loc 1 189 0
 543 00d2 0821     		movs	r1, #8
 544 00d4 0120     		movs	r0, #1
 545 00d6 FFF7FEFF 		bl	LCD_Position
 546              	.LVL52:
ARM GAS  C:\Users\santa\AppData\Local\Temp\cc91iiC0.s 			page 14


 190:main.c        ****                 LCD_PrintString(tx);
 547              		.loc 1 190 0
 548 00da 6846     		mov	r0, sp
 549 00dc FFF7FEFF 		bl	LCD_PrintString
 550              	.LVL53:
 551              	.LBE4:
 552 00e0 06E0     		b	.L37
 553              	.L38:
 191:main.c        ****              //   Read_Data();            
 192:main.c        ****        }else{
 193:main.c        ****               LCD_Position(0,0);
 554              		.loc 1 193 0
 555 00e2 0021     		movs	r1, #0
 556 00e4 0846     		mov	r0, r1
 557 00e6 FFF7FEFF 		bl	LCD_Position
 558              	.LVL54:
 194:main.c        ****               LCD_PrintString("Iniciar");
 559              		.loc 1 194 0
 560 00ea 1548     		ldr	r0, .L42+36
 561 00ec FFF7FEFF 		bl	LCD_PrintString
 562              	.LVL55:
 563              	.L37:
 195:main.c        ****       }
 196:main.c        ****       if(flag_reset==1){
 564              		.loc 1 196 0
 565 00f0 0C4B     		ldr	r3, .L42+8
 566 00f2 9B68     		ldr	r3, [r3, #8]
 567 00f4 012B     		cmp	r3, #1
 568 00f6 93D1     		bne	.L40
 197:main.c        ****          flag=0;
 569              		.loc 1 197 0
 570 00f8 0A4D     		ldr	r5, .L42+8
 571 00fa 0024     		movs	r4, #0
 572 00fc 6C60     		str	r4, [r5, #4]
 198:main.c        ****          temperatura=0;
 573              		.loc 1 198 0
 574 00fe 0022     		movs	r2, #0
 575 0100 0B4B     		ldr	r3, .L42+20
 576 0102 1A60     		str	r2, [r3]	@ float
 199:main.c        ****          EEPROM_EraseSector(1);
 577              		.loc 1 199 0
 578 0104 0120     		movs	r0, #1
 579 0106 FFF7FEFF 		bl	EEPROM_EraseSector
 580              	.LVL56:
 200:main.c        ****          Timer_Stop();
 581              		.loc 1 200 0
 582 010a FFF7FEFF 		bl	Timer_Stop
 583              	.LVL57:
 201:main.c        ****          LCD_ClearDisplay();
 584              		.loc 1 201 0
 585 010e 0120     		movs	r0, #1
 586 0110 FFF7FEFF 		bl	LCD_WriteControl
 587              	.LVL58:
 202:main.c        ****          flag_stop=0;
 588              		.loc 1 202 0
 589 0114 044B     		ldr	r3, .L42+12
 590 0116 1C60     		str	r4, [r3]
ARM GAS  C:\Users\santa\AppData\Local\Temp\cc91iiC0.s 			page 15


 203:main.c        ****          flag_reset=0;
 591              		.loc 1 203 0
 592 0118 AC60     		str	r4, [r5, #8]
 593              	.LBE3:
 204:main.c        ****       }
 205:main.c        ****     
 206:main.c        ****         /* Place your application code here. */
 207:main.c        ****     }
 594              		.loc 1 207 0
 595 011a 81E7     		b	.L40
 596              	.L43:
 597              		.align	2
 598              	.L42:
 599 011c 00000000 		.word	Timer
 600 0120 00000000 		.word	press_ISR
 601 0124 00000000 		.word	.LANCHOR0
 602 0128 00000000 		.word	flag_stop
 603 012c 0C000000 		.word	.LC2
 604 0130 00000000 		.word	temperatura
 605 0134 1C000000 		.word	.LC3
 606 0138 00000000 		.word	.LANCHOR1
 607 013c 20000000 		.word	.LC5
 608 0140 24000000 		.word	.LC6
 609              		.cfi_endproc
 610              	.LFE69:
 611              		.size	main, .-main
 612              		.global	y
 613              		.comm	x,4,4
 614              		.comm	valor,4,4
 615              		.global	count_t
 616              		.comm	temperatura,4,4
 617              		.global	datos
 618              		.global	index_vis
 619              		.global	flag_reset
 620              		.comm	flag_stop,4,4
 621              		.comm	flag_cont,4,4
 622              		.global	flag
 623              		.global	Keypad_1_Key
 624              		.section	.rodata
 625              		.align	2
 626              		.set	.LANCHOR1,. + 0
 627              	.LC4:
 628 0000 00       		.ascii	"\000"
 629 0001 0000     		.space	2
 630              		.data
 631              		.align	2
 632              		.type	Keypad_1_Key, %object
 633              		.size	Keypad_1_Key, 16
 634              	Keypad_1_Key:
 635 0000 31       		.byte	49
 636 0001 32       		.byte	50
 637 0002 33       		.byte	51
 638 0003 41       		.byte	65
 639 0004 34       		.byte	52
 640 0005 35       		.byte	53
 641 0006 36       		.byte	54
 642 0007 42       		.byte	66
ARM GAS  C:\Users\santa\AppData\Local\Temp\cc91iiC0.s 			page 16


 643 0008 37       		.byte	55
 644 0009 38       		.byte	56
 645 000a 39       		.byte	57
 646 000b 43       		.byte	67
 647 000c 2A       		.byte	42
 648 000d 30       		.byte	48
 649 000e 23       		.byte	35
 650 000f 44       		.byte	68
 651              		.section	.rodata.str1.4,"aMS",%progbits,1
 652              		.align	2
 653              	.LC0:
 654 0000 25662E32 		.ascii	"%f.2\000"
 654      00
 655 0005 000000   		.space	3
 656              	.LC1:
 657 0008 00       		.ascii	"\000"
 658 0009 000000   		.space	3
 659              	.LC2:
 660 000c 43617074 		.ascii	"Capturando...\000"
 660      7572616E 
 660      646F2E2E 
 660      2E00
 661 001a 0000     		.space	2
 662              	.LC3:
 663 001c 256600   		.ascii	"%f\000"
 664 001f 00       		.space	1
 665              	.LC5:
 666 0020 256400   		.ascii	"%d\000"
 667 0023 00       		.space	1
 668              	.LC6:
 669 0024 496E6963 		.ascii	"Iniciar\000"
 669      69617200 
 670              		.bss
 671              		.align	2
 672              		.set	.LANCHOR0,. + 0
 673              		.type	count_t, %object
 674              		.size	count_t, 1
 675              	count_t:
 676 0000 00       		.space	1
 677 0001 000000   		.space	3
 678              		.type	flag, %object
 679              		.size	flag, 4
 680              	flag:
 681 0004 00000000 		.space	4
 682              		.type	flag_reset, %object
 683              		.size	flag_reset, 4
 684              	flag_reset:
 685 0008 00000000 		.space	4
 686              		.type	index_vis, %object
 687              		.size	index_vis, 1
 688              	index_vis:
 689 000c 00       		.space	1
 690 000d 000000   		.space	3
 691              		.type	y, %object
 692              		.size	y, 4
 693              	y:
 694 0010 00000000 		.space	4
ARM GAS  C:\Users\santa\AppData\Local\Temp\cc91iiC0.s 			page 17


 695              		.type	datos, %object
 696              		.size	datos, 4
 697              	datos:
 698 0014 00000000 		.space	4
 699              		.text
 700              	.Letext0:
 701              		.file 2 "c:\\program files (x86)\\cypress\\psoc creator\\4.2\\psoc creator\\import\\gnu\\arm\\5.4.
 702              		.file 3 "c:\\program files (x86)\\cypress\\psoc creator\\4.2\\psoc creator\\import\\gnu\\arm\\5.4.
 703              		.file 4 "Generated_Source\\PSoC5/cytypes.h"
 704              		.file 5 "Generated_Source\\PSoC5/core_cm3.h"
 705              		.file 6 "Generated_Source\\PSoC5/pin.h"
 706              		.file 7 "Generated_Source\\PSoC5/EEPROM.h"
 707              		.file 8 "Generated_Source\\PSoC5/Keypad_1_Keypad1.h"
 708              		.file 9 "Generated_Source\\PSoC5/CyLib.h"
 709              		.file 10 "Generated_Source\\PSoC5/isr_press.h"
 710              		.file 11 "Generated_Source\\PSoC5/LCD.h"
 711              		.file 12 "c:\\program files (x86)\\cypress\\psoc creator\\4.2\\psoc creator\\import\\gnu\\arm\\5.4
 712              		.file 13 "Generated_Source\\PSoC5/ADC.h"
 713              		.file 14 "Generated_Source\\PSoC5/Timer.h"
 714              		.file 15 "Generated_Source\\PSoC5/isr_timer.h"